; Function Attrs: mustprogress uwtable
define void @_ZN6colvar12distance_vec11apply_forceERK11colvarvalue(ptr noundef nonnull readonly align 8 captures(none) dereferenceable(1648) %0, ptr noundef nonnull align 8 dereferenceable(168) %1) unnamed_addr #2 align 2 {
  %3 = alloca %"class.colvarmodule::rvector", align 8
  %4 = getelementptr inbounds nuw i8, ptr %0, i64 1608
  %5 = load ptr, ptr %4, align 8, !tbaa !4
  %6 = getelementptr inbounds nuw i8, ptr %5, i64 1320
  %7 = load i8, ptr %6, align 8, !tbaa !116, !range !91, !noundef !92
  %8 = trunc nuw i8 %7 to i1
  br i1 %8, label %21, label %9

9:                                                ; preds = %2
  call void @llvm.lifetime.start.p0(i64 24, ptr nonnull %3) #26
  %10 = getelementptr inbounds nuw i8, ptr %1, i64 16
  tail call void @llvm.experimental.noalias.scope.decl(metadata !131)
  %11 = load double, ptr %10, align 8, !tbaa !95, !noalias !131
  %12 = fneg double %11
  %13 = getelementptr inbounds nuw i8, ptr %1, i64 24
  %14 = load double, ptr %13, align 8, !tbaa !96, !noalias !131
  %15 = fneg double %14
  %16 = getelementptr inbounds nuw i8, ptr %1, i64 32
  %17 = load double, ptr %16, align 8, !tbaa !97, !noalias !131
  %18 = fneg double %17
  store double %12, ptr %3, align 8, !tbaa !95, !alias.scope !131
  %19 = getelementptr inbounds nuw i8, ptr %3, i64 8
  store double %15, ptr %19, align 8, !tbaa !96, !alias.scope !131
  %20 = getelementptr inbounds nuw i8, ptr %3, i64 16
  store double %18, ptr %20, align 8, !tbaa !97, !alias.scope !131
  call void @_ZN12colvarmodule10atom_group11apply_forceERKNS_7rvectorE(ptr noundef nonnull align 8 dereferenceable(1496) %5, ptr noundef nonnull align 8 dereferenceable(24) %3)
  call void @llvm.lifetime.end.p0(i64 24, ptr nonnull %3) #26
  br label %21

21:                                               ; preds = %9, %2
  %22 = getelementptr inbounds nuw i8, ptr %0, i64 1616
  %23 = load ptr, ptr %22, align 8, !tbaa !85
  %24 = getelementptr inbounds nuw i8, ptr %23, i64 1320
  %25 = load i8, ptr %24, align 8, !tbaa !116, !range !91, !noundef !92
  %26 = trunc nuw i8 %25 to i1
  br i1 %26, label %29, label %27

27:                                               ; preds = %21
  %28 = getelementptr inbounds nuw i8, ptr %1, i64 16
  call void @_ZN12colvarmodule10atom_group11apply_forceERKNS_7rvectorE(ptr noundef nonnull align 8 dereferenceable(1496) %23, ptr noundef nonnull align 8 dereferenceable(24) %28)
  br label %29

29:                                               ; preds = %27, %21
  ret void
}